target datalayout = "e-m:e-p270:32:32-p271:32:32-p272:64:64-i64:64-i128:128-f80:128-n8:16:32:64-S128"
target triple = "x86_64-pc-linux-gnu"

%struct.VkComponentMapping = type { i32, i32, i32, i32 }
%struct.SDL_AtomicInt = type { i32 }
%struct.VulkanRenderer = type { ptr, ptr, %struct.VkPhysicalDeviceProperties2, %struct.VkPhysicalDeviceDriverProperties, %struct.VkPhysicalDeviceFeatures, ptr, i8, i8, i8, i8, i8, i8, i32, i32, %struct.VulkanExtensions, i8, i8, i8, i8, ptr, %struct.VkPhysicalDeviceMemoryProperties, i8, ptr, i32, i32, i32, ptr, ptr, i32, i32, %struct.VulkanFencePool, ptr, ptr, ptr, ptr, ptr, ptr, ptr, i32, i32, ptr, i32, i32, %struct.SDL_AtomicInt, i32, ptr, i32, i32, ptr, i32, i32, ptr, i32, i32, ptr, i32, i32, ptr, i32, i32, ptr, i32, i32, ptr, i32, i32, ptr, ptr, ptr, ptr, ptr, ptr, ptr, ptr, ptr, ptr, ptr, i8, ptr, i32, i32, ptr, ptr, ptr, ptr, ptr, ptr, ptr, ptr, ptr, ptr, ptr, ptr, ptr, ptr, ptr, ptr, ptr, ptr, ptr, ptr, ptr, ptr, ptr, ptr, ptr, ptr, ptr, ptr, ptr, ptr, ptr, ptr, ptr, ptr, ptr, ptr, ptr, ptr, ptr, ptr, ptr, ptr, ptr, ptr, ptr, ptr, ptr, ptr, ptr, ptr, ptr, ptr, ptr, ptr, ptr, ptr, ptr, ptr, ptr, ptr, ptr, ptr, ptr, ptr, ptr, ptr, ptr, ptr, ptr, ptr, ptr, ptr, ptr, ptr, ptr, ptr, ptr, ptr, ptr, ptr, ptr, ptr, ptr, ptr, ptr, ptr, ptr, ptr, ptr, ptr, ptr, ptr, ptr, ptr, ptr, ptr, ptr, ptr, ptr, ptr, ptr, ptr, ptr, ptr, ptr, ptr, ptr, ptr, ptr, ptr }
%struct.VkPhysicalDeviceProperties2 = type { i32, ptr, %struct.VkPhysicalDeviceProperties }
%struct.VkPhysicalDeviceProperties = type { i32, i32, i32, i32, i32, [256 x i8], [16 x i8], %struct.VkPhysicalDeviceLimits, %struct.VkPhysicalDeviceSparseProperties }
%struct.VkPhysicalDeviceLimits = type { i32, i32, i32, i32, i32, i32, i32, i32, i32, i32, i32, i64, i64, i32, i32, i32, i32, i32, i32, i32, i32, i32, i32, i32, i32, i32, i32, i32, i32, i32, i32, i32, i32, i32, i32, i32, i32, i32, i32, i32, i32, i32, i32, i32, i32, i32, i32, i32, i32, i32, i32, i32, [3 x i32], i32, [3 x i32], i32, i32, i32, i32, i32, float, float, i32, [2 x i32], [2 x float], i32, i64, i64, i64, i64, i32, i32, i32, i32, float, float, i32, i32, i32, i32, i32, i32, i32, i32, i32, i32, i32, i32, i32, i32, i32, i32, float, i32, i32, i32, i32, [2 x float], [2 x float], float, float, i32, i32, i64, i64, i64 }
%struct.VkPhysicalDeviceSparseProperties = type { i32, i32, i32, i32, i32 }
%struct.VkPhysicalDeviceDriverProperties = type { i32, ptr, i32, [256 x i8], [256 x i8], %struct.VkConformanceVersion }
%struct.VkConformanceVersion = type { i8, i8, i8, i8 }
%struct.VkPhysicalDeviceFeatures = type { i32, i32, i32, i32, i32, i32, i32, i32, i32, i32, i32, i32, i32, i32, i32, i32, i32, i32, i32, i32, i32, i32, i32, i32, i32, i32, i32, i32, i32, i32, i32, i32, i32, i32, i32, i32, i32, i32, i32, i32, i32, i32, i32, i32, i32, i32, i32, i32, i32, i32, i32, i32, i32, i32, i32 }
%struct.VulkanExtensions = type { i8, i8, i8, i8, i8 }
%struct.VkPhysicalDeviceMemoryProperties = type { i32, [32 x %struct.VkMemoryType], i32, [16 x %struct.VkMemoryHeap] }
%struct.VkMemoryType = type { i32, i32 }
%struct.VkMemoryHeap = type { i64, i32 }
%struct.VulkanFencePool = type { ptr, ptr, i32, i32 }
%struct.WindowData = type { ptr, i32, i32, i8, i32, i32, ptr, ptr, i32, i32, %struct.VkComponentMapping, i8, ptr, i32, i32, i32, [3 x ptr], ptr, [3 x ptr], i32 }

; Function Attrs: nounwind uwtable
define internal zeroext i1 @VULKAN_SetAllowedFramesInFlight(ptr noundef %0, i32 noundef %1) #0 {
  %3 = alloca i1, align 1
  %4 = alloca ptr, align 8
  %5 = alloca i32, align 4
  %6 = alloca ptr, align 8
  %7 = alloca i32, align 4
  %8 = alloca i32, align 4
  %9 = alloca ptr, align 8
  %10 = alloca i32, align 4
  store ptr %0, ptr %4, align 8
  store i32 %1, ptr %5, align 4
  call void @llvm.lifetime.start.p0(i64 8, ptr %6) #9
  %11 = load ptr, ptr %4, align 8
  store ptr %11, ptr %6, align 8
  %12 = load i32, ptr %5, align 4
  %13 = load ptr, ptr %6, align 8
  %14 = getelementptr inbounds nuw %struct.VulkanRenderer, ptr %13, i32 0, i32 13
  store i32 %12, ptr %14, align 4
  call void @llvm.lifetime.start.p0(i64 4, ptr %7) #9
  store i32 0, ptr %7, align 4
  br label %15

15:                                               ; preds = %47, %2
  %16 = load i32, ptr %7, align 4
  %17 = load ptr, ptr %6, align 8
  %18 = getelementptr inbounds nuw %struct.VulkanRenderer, ptr %17, i32 0, i32 23
  %19 = load i32, ptr %18, align 8
  %20 = icmp ult i32 %16, %19
  br i1 %20, label %22, label %21

21:                                               ; preds = %15
  store i32 2, ptr %8, align 4
  br label %50

22:                                               ; preds = %15
  call void @llvm.lifetime.start.p0(i64 8, ptr %9) #9
  %23 = load ptr, ptr %6, align 8
  %24 = getelementptr inbounds nuw %struct.VulkanRenderer, ptr %23, i32 0, i32 22
  %25 = load ptr, ptr %24, align 8
  %26 = load i32, ptr %7, align 4
  %27 = zext i32 %26 to i64
  %28 = getelementptr inbounds nuw ptr, ptr %25, i64 %27
  %29 = load ptr, ptr %28, align 8
  store ptr %29, ptr %9, align 8
  call void @llvm.lifetime.start.p0(i64 4, ptr %10) #9
  %30 = load ptr, ptr %6, align 8
  %31 = load ptr, ptr %9, align 8
  %32 = call i32 @VULKAN_INTERNAL_RecreateSwapchain(ptr noundef %30, ptr noundef %31)
  store i32 %32, ptr %10, align 4
  %33 = load i32, ptr %10, align 4
  %34 = icmp ne i32 %33, 0
  br i1 %34, label %36, label %35

35:                                               ; preds = %22
  store i1 false, ptr %3, align 1
  store i32 1, ptr %8, align 4
  br label %44

36:                                               ; preds = %22
  %37 = load i32, ptr %10, align 4
  %38 = icmp eq i32 %37, 2
  br i1 %38, label %39, label %42

39:                                               ; preds = %36
  %40 = load ptr, ptr %9, align 8
  %41 = getelementptr inbounds nuw %struct.WindowData, ptr %40, i32 0, i32 3
  store i8 1, ptr %41, align 8
  br label %42

42:                                               ; preds = %39, %36
  br label %43

43:                                               ; preds = %42
  store i32 0, ptr %8, align 4
  br label %44

44:                                               ; preds = %43, %35
  call void @llvm.lifetime.end.p0(i64 4, ptr %10) #9
  call void @llvm.lifetime.end.p0(i64 8, ptr %9) #9
  %45 = load i32, ptr %8, align 4
  switch i32 %45, label %50 [
    i32 0, label %46
  ]

46:                                               ; preds = %44
  br label %47

47:                                               ; preds = %46
  %48 = load i32, ptr %7, align 4
  %49 = add i32 %48, 1
  store i32 %49, ptr %7, align 4
  br label %15, !llvm.loop !58

50:                                               ; preds = %44, %21
  call void @llvm.lifetime.end.p0(i64 4, ptr %7) #9
  %51 = load i32, ptr %8, align 4
  switch i32 %51, label %53 [
    i32 2, label %52
  ]

52:                                               ; preds = %50
  store i1 true, ptr %3, align 1
  store i32 1, ptr %8, align 4
  br label %53

53:                                               ; preds = %52, %50
  call void @llvm.lifetime.end.p0(i64 8, ptr %6) #9
  %54 = load i1, ptr %3, align 1
  ret i1 %54
}