; Function Attrs: nounwind uwtable
define internal noundef zeroext i1 @VULKAN_SetAllowedFramesInFlight(ptr noundef initializes((1636, 1640)) %0, i32 noundef %1) #0 {
  %3 = getelementptr inbounds nuw i8, ptr %0, i64 1636
  store i32 %1, ptr %3, align 4
  %4 = getelementptr inbounds nuw i8, ptr %0, i64 2200
  %5 = load i32, ptr %4, align 8
  %.not21 = icmp eq i32 %5, 0
  br i1 %.not21, label %.critedge, label %.lr.ph

.lr.ph:                                           ; preds = %2
  %6 = getelementptr inbounds nuw i8, ptr %0, i64 2192
  br label %7

7:                                                ; preds = %.lr.ph, %14
  %indvars.iv = phi i64 [ 0, %.lr.ph ], [ %indvars.iv.next, %14 ]
  %8 = load ptr, ptr %6, align 8
  %9 = getelementptr inbounds nuw ptr, ptr %8, i64 %indvars.iv
  %10 = load ptr, ptr %9, align 8
  %11 = tail call fastcc i32 @VULKAN_INTERNAL_RecreateSwapchain(ptr noundef nonnull %0, ptr noundef %10)
  switch i32 %11, label %14 [
    i32 0, label %.critedge
    i32 2, label %12
  ]

12:                                               ; preds = %7
  %13 = getelementptr inbounds nuw i8, ptr %10, i64 16
  store i8 1, ptr %13, align 8
  br label %14

14:                                               ; preds = %7, %12
  %indvars.iv.next = add nuw nsw i64 %indvars.iv, 1
  %15 = load i32, ptr %4, align 8
  %16 = zext i32 %15 to i64
  %.not.not = icmp samesign ult i64 %indvars.iv.next, %16
  br i1 %.not.not, label %7, label %.critedge, !llvm.loop !77

.critedge:                                        ; preds = %14, %7, %2
  %.not.lcssa = phi i1 [ true, %2 ], [ false, %7 ], [ true, %14 ]
  ret i1 %.not.lcssa
}